; Function Attrs: alwaysinline norecurse nounwind ssp uwtable
define internal void @_Z24TestMatrixMultiplicationiPPc.omp_outlined.15(ptr noalias readnone captures(none) %0, ptr noalias readnone captures(none) %1) #21 personality ptr @__gxx_personality_v0 {
  invoke void @_Z8svd_taskv()
          to label %3 unwind label %4

3:                                                ; preds = %2
  ret void

4:                                                ; preds = %2
  %5 = landingpad { ptr, i32 }
          catch ptr null
  %6 = extractvalue { ptr, i32 } %5, 0
  tail call void @__clang_call_terminate(ptr %6) #45
  unreachable
}